target datalayout = "e-m:e-p270:32:32-p271:32:32-p272:64:64-i64:64-i128:128-f80:128-n8:16:32:64-S128"
target triple = "x86_64-pc-linux-gnu"

%"class.sat::elim_vars" = type { ptr, ptr, %"class.dd::bdd_manager", %class.random_gen, %class.svector.2, %class.svector.2, i32, %class.svector.2, %class.svector.2, i32, i32, i32, i32 }
%"class.dd::bdd_manager" = type { i32, %class.svector, %class.ptr_hashtable, %class.hashtable, %class.svector.2, %class.svector.2, ptr, %class.svector.2, %class.svector.2, %class.svector.2, %class.svector.2, %class.small_object_allocator, %class.svector.2, i32, %class.svector.4, %class.svector.2, i8, i8, i32, %class.svector.2, %class.svector.2, %class.svector.2, %class.vector.6, %class.svector.2, i32, i32 }
%class.svector = type { %class.vector }
%class.vector = type { ptr }
%class.ptr_hashtable = type { %class.core_hashtable.base, [4 x i8] }
%class.core_hashtable.base = type <{ ptr, i32, i32, i32 }>
%class.hashtable = type { %class.core_hashtable.base.1, [4 x i8] }
%class.core_hashtable.base.1 = type <{ ptr, i32, i32, i32 }>
%class.small_object_allocator = type { [32 x ptr], [32 x ptr], i64 }
%class.svector.4 = type { %class.vector.5 }
%class.vector.5 = type { ptr }
%class.vector.6 = type { ptr }
%class.random_gen = type { i32 }
%class.svector.2 = type { %class.vector.3 }
%class.vector.3 = type { ptr }
%"class.sat::elim_vars::compare_occ" = type { ptr }
%"struct.__gnu_cxx::__ops::_Iter_comp_iter" = type { %"class.sat::elim_vars::compare_occ" }

; Function Attrs: inlinehint mustprogress nounwind uwtable
define linkonce_odr noundef i64 @_ZSt4__lgl(i64 noundef %0) #9 comdat {
  %2 = alloca i64, align 8
  store i64 %0, ptr %2, align 8, !tbaa !281
  %3 = load i64, ptr %2, align 8, !tbaa !281
  %4 = call i64 @llvm.ctlz.i64(i64 %3, i1 true)
  %5 = trunc i64 %4 to i32
  %6 = sub nsw i32 63, %5
  %7 = sext i32 %6 to i64
  ret i64 %7
}

; Function Attrs: mustprogress nounwind uwtable
define linkonce_odr hidden void @_ZN9__gnu_cxx5__ops15_Iter_comp_iterIN3sat9elim_vars11compare_occEEC2ES4_(ptr noundef nonnull align 8 dereferenceable(8) %0, ptr %1) unnamed_addr #5 comdat align 2 {
  %3 = alloca %"class.sat::elim_vars::compare_occ", align 8
  %4 = alloca ptr, align 8
  %5 = getelementptr inbounds nuw %"class.sat::elim_vars::compare_occ", ptr %3, i32 0, i32 0
  store ptr %1, ptr %5, align 8
  store ptr %0, ptr %4, align 8, !tbaa !295
  %6 = load ptr, ptr %4, align 8
  %7 = getelementptr inbounds nuw %"struct.__gnu_cxx::__ops::_Iter_comp_iter", ptr %6, i32 0, i32 0
  call void @llvm.memcpy.p0.p0.i64(ptr align 8 %7, ptr align 8 %3, i64 8, i1 false), !tbaa.struct !251
  ret void
}

; Function Attrs: inlinehint mustprogress uwtable
define linkonce_odr hidden void @_ZSt6__sortIPjN9__gnu_cxx5__ops15_Iter_comp_iterIN3sat9elim_vars11compare_occEEEEvT_S8_T0_(ptr noundef %0, ptr noundef %1, ptr %2) #8 comdat {
  %4 = alloca %"struct.__gnu_cxx::__ops::_Iter_comp_iter", align 8
  %5 = alloca ptr, align 8
  %6 = alloca ptr, align 8
  %7 = alloca %"struct.__gnu_cxx::__ops::_Iter_comp_iter", align 8
  %8 = alloca %"struct.__gnu_cxx::__ops::_Iter_comp_iter", align 8
  %9 = getelementptr inbounds nuw %"struct.__gnu_cxx::__ops::_Iter_comp_iter", ptr %4, i32 0, i32 0
  %10 = getelementptr inbounds nuw %"class.sat::elim_vars::compare_occ", ptr %9, i32 0, i32 0
  store ptr %2, ptr %10, align 8
  store ptr %0, ptr %5, align 8, !tbaa !102
  store ptr %1, ptr %6, align 8, !tbaa !102
  %11 = load ptr, ptr %5, align 8, !tbaa !102
  %12 = load ptr, ptr %6, align 8, !tbaa !102
  %13 = icmp ne ptr %11, %12
  br i1 %13, label %14, label %33

14:                                               ; preds = %3
  %15 = load ptr, ptr %5, align 8, !tbaa !102
  %16 = load ptr, ptr %6, align 8, !tbaa !102
  %17 = load ptr, ptr %6, align 8, !tbaa !102
  %18 = load ptr, ptr %5, align 8, !tbaa !102
  %19 = ptrtoint ptr %17 to i64
  %20 = ptrtoint ptr %18 to i64
  %21 = sub i64 %19, %20
  %22 = sdiv exact i64 %21, 4
  %23 = call noundef i64 @_ZSt4__lgl(i64 noundef %22)
  %24 = mul nsw i64 %23, 2
  call void @llvm.memcpy.p0.p0.i64(ptr align 8 %7, ptr align 8 %4, i64 8, i1 false), !tbaa.struct !251
  %25 = getelementptr inbounds nuw %"struct.__gnu_cxx::__ops::_Iter_comp_iter", ptr %7, i32 0, i32 0
  %26 = getelementptr inbounds nuw %"class.sat::elim_vars::compare_occ", ptr %25, i32 0, i32 0
  %27 = load ptr, ptr %26, align 8
  call void @_ZSt16__introsort_loopIPjlN9__gnu_cxx5__ops15_Iter_comp_iterIN3sat9elim_vars11compare_occEEEEvT_S8_T0_T1_(ptr noundef %15, ptr noundef %16, i64 noundef %24, ptr %27)
  %28 = load ptr, ptr %5, align 8, !tbaa !102
  %29 = load ptr, ptr %6, align 8, !tbaa !102
  call void @llvm.memcpy.p0.p0.i64(ptr align 8 %8, ptr align 8 %4, i64 8, i1 false), !tbaa.struct !251
  %30 = getelementptr inbounds nuw %"struct.__gnu_cxx::__ops::_Iter_comp_iter", ptr %8, i32 0, i32 0
  %31 = getelementptr inbounds nuw %"class.sat::elim_vars::compare_occ", ptr %30, i32 0, i32 0
  %32 = load ptr, ptr %31, align 8
  call void @_ZSt22__final_insertion_sortIPjN9__gnu_cxx5__ops15_Iter_comp_iterIN3sat9elim_vars11compare_occEEEEvT_S8_T0_(ptr noundef %28, ptr noundef %29, ptr %32)
  br label %33

33:                                               ; preds = %14, %3
  ret void
}

; Function Attrs: inlinehint mustprogress uwtable
define linkonce_odr hidden ptr @_ZN9__gnu_cxx5__ops16__iter_comp_iterIN3sat9elim_vars11compare_occEEENS0_15_Iter_comp_iterIT_EES6_(ptr %0) #8 comdat {
  %2 = alloca %"struct.__gnu_cxx::__ops::_Iter_comp_iter", align 8
  %3 = alloca %"class.sat::elim_vars::compare_occ", align 8
  %4 = alloca %"class.sat::elim_vars::compare_occ", align 8
  %5 = getelementptr inbounds nuw %"class.sat::elim_vars::compare_occ", ptr %3, i32 0, i32 0
  store ptr %0, ptr %5, align 8
  call void @llvm.memcpy.p0.p0.i64(ptr align 8 %4, ptr align 8 %3, i64 8, i1 false), !tbaa.struct !251
  %6 = getelementptr inbounds nuw %"class.sat::elim_vars::compare_occ", ptr %4, i32 0, i32 0
  %7 = load ptr, ptr %6, align 8
  call void @_ZN9__gnu_cxx5__ops15_Iter_comp_iterIN3sat9elim_vars11compare_occEEC2ES4_(ptr noundef nonnull align 8 dereferenceable(8) %2, ptr %7)
  %8 = getelementptr inbounds nuw %"struct.__gnu_cxx::__ops::_Iter_comp_iter", ptr %2, i32 0, i32 0
  %9 = getelementptr inbounds nuw %"class.sat::elim_vars::compare_occ", ptr %8, i32 0, i32 0
  %10 = load ptr, ptr %9, align 8
  ret ptr %10
}

; Function Attrs: mustprogress nounwind uwtable
define linkonce_odr hidden noundef i32 @_ZNK6vectorIjLb0EjE4sizeEv(ptr noundef nonnull align 8 dereferenceable(8) %0) #5 comdat align 2 {
  %2 = alloca i32, align 4
  %3 = alloca ptr, align 8
  store ptr %0, ptr %3, align 8, !tbaa !237
  %4 = load ptr, ptr %3, align 8
  %5 = getelementptr inbounds nuw %class.vector.3, ptr %4, i32 0, i32 0
  %6 = load ptr, ptr %5, align 8, !tbaa !239
  %7 = icmp eq ptr %6, null
  br i1 %7, label %8, label %9

8:                                                ; preds = %1
  store i32 0, ptr %2, align 4
  br label %14

9:                                                ; preds = %1
  %10 = getelementptr inbounds nuw %class.vector.3, ptr %4, i32 0, i32 0
  %11 = load ptr, ptr %10, align 8, !tbaa !239
  %12 = getelementptr inbounds i32, ptr %11, i64 -1
  %13 = load i32, ptr %12, align 4, !tbaa !73
  store i32 %13, ptr %2, align 4
  br label %14

14:                                               ; preds = %9, %8
  %15 = load i32, ptr %2, align 4
  ret i32 %15
}

; Function Attrs: inlinehint mustprogress uwtable
define linkonce_odr hidden void @_ZSt4sortIPjN3sat9elim_vars11compare_occEEvT_S4_T0_(ptr noundef %0, ptr noundef %1, ptr %2) #8 comdat {
  %4 = alloca %"class.sat::elim_vars::compare_occ", align 8
  %5 = alloca ptr, align 8
  %6 = alloca ptr, align 8
  %7 = alloca %"struct.__gnu_cxx::__ops::_Iter_comp_iter", align 8
  %8 = alloca %"class.sat::elim_vars::compare_occ", align 8
  %9 = getelementptr inbounds nuw %"class.sat::elim_vars::compare_occ", ptr %4, i32 0, i32 0
  store ptr %2, ptr %9, align 8
  store ptr %0, ptr %5, align 8, !tbaa !102
  store ptr %1, ptr %6, align 8, !tbaa !102
  %10 = load ptr, ptr %5, align 8, !tbaa !102
  %11 = load ptr, ptr %6, align 8, !tbaa !102
  call void @llvm.memcpy.p0.p0.i64(ptr align 8 %8, ptr align 8 %4, i64 8, i1 false), !tbaa.struct !251
  %12 = getelementptr inbounds nuw %"class.sat::elim_vars::compare_occ", ptr %8, i32 0, i32 0
  %13 = load ptr, ptr %12, align 8
  %14 = call ptr @_ZN9__gnu_cxx5__ops16__iter_comp_iterIN3sat9elim_vars11compare_occEEENS0_15_Iter_comp_iterIT_EES6_(ptr %13)
  %15 = getelementptr inbounds nuw %"struct.__gnu_cxx::__ops::_Iter_comp_iter", ptr %7, i32 0, i32 0
  %16 = getelementptr inbounds nuw %"class.sat::elim_vars::compare_occ", ptr %15, i32 0, i32 0
  store ptr %14, ptr %16, align 8
  %17 = getelementptr inbounds nuw %"struct.__gnu_cxx::__ops::_Iter_comp_iter", ptr %7, i32 0, i32 0
  %18 = getelementptr inbounds nuw %"class.sat::elim_vars::compare_occ", ptr %17, i32 0, i32 0
  %19 = load ptr, ptr %18, align 8
  call void @_ZSt6__sortIPjN9__gnu_cxx5__ops15_Iter_comp_iterIN3sat9elim_vars11compare_occEEEEvT_S8_T0_(ptr noundef %10, ptr noundef %11, ptr %19)
  ret void
}

; Function Attrs: mustprogress nounwind uwtable
define linkonce_odr hidden void @_ZN3sat9elim_vars11compare_occC2ERS0_(ptr noundef nonnull align 8 dereferenceable(8) %0, ptr noundef nonnull align 8 dereferenceable(808) %1) unnamed_addr #5 comdat align 2 {
  %3 = alloca ptr, align 8
  %4 = alloca ptr, align 8
  store ptr %0, ptr %3, align 8, !tbaa !252
  store ptr %1, ptr %4, align 8, !tbaa !3
  %5 = load ptr, ptr %3, align 8
  %6 = getelementptr inbounds nuw %"class.sat::elim_vars::compare_occ", ptr %5, i32 0, i32 0
  %7 = load ptr, ptr %4, align 8, !tbaa !3
  store ptr %7, ptr %6, align 8, !tbaa !3
  ret void
}

; Function Attrs: mustprogress nounwind uwtable
define linkonce_odr hidden noundef ptr @_ZN6vectorIjLb0EjE3endEv(ptr noundef nonnull align 8 dereferenceable(8) %0) #5 comdat align 2 {
  %2 = alloca ptr, align 8
  store ptr %0, ptr %2, align 8, !tbaa !237
  %3 = load ptr, ptr %2, align 8
  %4 = getelementptr inbounds nuw %class.vector.3, ptr %3, i32 0, i32 0
  %5 = load ptr, ptr %4, align 8, !tbaa !239
  %6 = call noundef i32 @_ZNK6vectorIjLb0EjE4sizeEv(ptr noundef nonnull align 8 dereferenceable(8) %3)
  %7 = zext i32 %6 to i64
  %8 = getelementptr inbounds nuw i32, ptr %5, i64 %7
  ret ptr %8
}

; Function Attrs: mustprogress nounwind uwtable
define linkonce_odr hidden noundef ptr @_ZN6vectorIjLb0EjE5beginEv(ptr noundef nonnull align 8 dereferenceable(8) %0) #5 comdat align 2 {
  %2 = alloca ptr, align 8
  store ptr %0, ptr %2, align 8, !tbaa !237
  %3 = load ptr, ptr %2, align 8
  %4 = getelementptr inbounds nuw %class.vector.3, ptr %3, i32 0, i32 0
  %5 = load ptr, ptr %4, align 8, !tbaa !239
  ret ptr %5
}

; Function Attrs: mustprogress uwtable
define hidden void @_ZN3sat9elim_vars11sort_markedEv(ptr noundef nonnull align 8 dereferenceable(808) %0) #4 align 2 {
  %2 = alloca ptr, align 8
  %3 = alloca %"class.sat::elim_vars::compare_occ", align 8
  store ptr %0, ptr %2, align 8, !tbaa !3
  %4 = load ptr, ptr %2, align 8
  %5 = getelementptr inbounds nuw %"class.sat::elim_vars", ptr %4, i32 0, i32 4
  %6 = call noundef ptr @_ZN6vectorIjLb0EjE5beginEv(ptr noundef nonnull align 8 dereferenceable(8) %5)
  %7 = getelementptr inbounds nuw %"class.sat::elim_vars", ptr %4, i32 0, i32 4
  %8 = call noundef ptr @_ZN6vectorIjLb0EjE3endEv(ptr noundef nonnull align 8 dereferenceable(8) %7)
  call void @_ZN3sat9elim_vars11compare_occC2ERS0_(ptr noundef nonnull align 8 dereferenceable(8) %3, ptr noundef nonnull align 8 dereferenceable(808) %4)
  %9 = getelementptr inbounds nuw %"class.sat::elim_vars::compare_occ", ptr %3, i32 0, i32 0
  %10 = load ptr, ptr %9, align 8
  call void @_ZSt4sortIPjN3sat9elim_vars11compare_occEEvT_S4_T0_(ptr noundef %6, ptr noundef %8, ptr %10)
  ret void
}