; Function Attrs: mustprogress uwtable
define hidden void @_ZN3sat9elim_vars11sort_markedEv(ptr noundef nonnull align 8 dereferenceable(808) %0) local_unnamed_addr #3 align 2 {
  %2 = getelementptr inbounds nuw i8, ptr %0, i64 752
  %3 = load ptr, ptr %2, align 8, !tbaa !79
  %4 = icmp eq ptr %3, null
  br i1 %4, label %_ZSt4sortIPjN3sat9elim_vars11compare_occEEvT_S4_T0_.exit, label %_ZN6vectorIjLb0EjE3endEv.exit

_ZN6vectorIjLb0EjE3endEv.exit:                    ; preds = %1
  %5 = getelementptr inbounds i8, ptr %3, i64 -4
  %6 = load i32, ptr %5, align 4, !tbaa !80
  %.not.i.i = icmp eq i32 %6, 0
  br i1 %.not.i.i, label %_ZSt4sortIPjN3sat9elim_vars11compare_occEEvT_S4_T0_.exit, label %7

7:                                                ; preds = %_ZN6vectorIjLb0EjE3endEv.exit
  %8 = zext i32 %6 to i64
  %9 = getelementptr inbounds nuw i32, ptr %3, i64 %8
  %10 = tail call range(i64 0, 65) i64 @llvm.ctlz.i64(i64 %8, i1 true)
  %11 = shl nuw nsw i64 %10, 1
  %12 = xor i64 %11, 126
  tail call void @_ZSt16__introsort_loopIPjlN9__gnu_cxx5__ops15_Iter_comp_iterIN3sat9elim_vars11compare_occEEEEvT_S8_T0_T1_(ptr noundef nonnull %3, ptr noundef nonnull %9, i64 noundef %12, ptr nonnull %0)
  tail call void @_ZSt22__final_insertion_sortIPjN9__gnu_cxx5__ops15_Iter_comp_iterIN3sat9elim_vars11compare_occEEEEvT_S8_T0_(ptr noundef nonnull %3, ptr noundef nonnull %9, ptr nonnull %0)
  br label %_ZSt4sortIPjN3sat9elim_vars11compare_occEEvT_S4_T0_.exit

_ZSt4sortIPjN3sat9elim_vars11compare_occEEvT_S4_T0_.exit: ; preds = %1, %_ZN6vectorIjLb0EjE3endEv.exit, %7
  ret void
}